; Function Attrs: mustprogress nofree nounwind willreturn memory(readwrite, argmem: read) uwtable
define noalias noundef ptr @Abc_NtkVerifyGetCleanModel(ptr noundef readonly captures(none) %0, i32 noundef %1) local_unnamed_addr #4 {
  %3 = getelementptr i8, ptr %0, i64 56
  %.val = load ptr, ptr %3, align 8, !tbaa !3
  %4 = getelementptr i8, ptr %.val, i64 4
  %.val.val = load i32, ptr %4, align 4, !tbaa !24
  %5 = mul nsw i32 %.val.val, %1
  %6 = sext i32 %5 to i64
  %7 = shl nsw i64 %6, 2
  %8 = tail call noalias ptr @malloc(i64 noundef %7) #16
  %9 = sext i32 %.val.val to i64
  %10 = sext i32 %1 to i64
  %11 = shl nsw i64 %10, 2
  %12 = mul i64 %11, %9
  tail call void @llvm.memset.p0.i64(ptr align 4 %8, i8 0, i64 %12, i1 false)
  ret ptr %8
}